target datalayout = "e-m:e-p270:32:32-p271:32:32-p272:64:64-i64:64-i128:128-f80:128-n8:16:32:64-S128"
target triple = "x86_64-pc-linux-gnu"

%"class.arrow::Table" = type { ptr, %"class.std::shared_ptr", i64 }
%"class.std::shared_ptr" = type { %"class.std::__shared_ptr" }
%"class.std::__shared_ptr" = type { ptr, %"class.std::__shared_count" }
%"class.std::__shared_count" = type { ptr }
%"class.std::shared_ptr.49" = type { %"class.std::__shared_ptr.50" }
%"class.std::__shared_ptr.50" = type { ptr, %"class.std::__shared_count" }
%"class.arrow::EqualOptions" = type { double, i8, i8, ptr }

; Function Attrs: mustprogress nounwind uwtable
define linkonce_odr noundef ptr @_ZNKSt12__shared_ptrIN5arrow12ChunkedArrayELN9__gnu_cxx12_Lock_policyE2EE3getEv(ptr noundef nonnull align 8 dereferenceable(16) %0) #0 comdat align 2 {
  %2 = alloca ptr, align 8
  store ptr %0, ptr %2, align 8, !tbaa !404
  %3 = load ptr, ptr %2, align 8
  %4 = getelementptr inbounds nuw %"class.std::__shared_ptr.50", ptr %3, i32 0, i32 0
  %5 = load ptr, ptr %4, align 8, !tbaa !406
  ret ptr %5
}

; Function Attrs: mustprogress nounwind uwtable
define linkonce_odr noundef ptr @_ZNKSt12__shared_ptrIN5arrow6SchemaELN9__gnu_cxx12_Lock_policyE2EE3getEv(ptr noundef nonnull align 8 dereferenceable(16) %0) #0 comdat align 2 {
  %2 = alloca ptr, align 8
  store ptr %0, ptr %2, align 8, !tbaa !436
  %3 = load ptr, ptr %2, align 8
  %4 = getelementptr inbounds nuw %"class.std::__shared_ptr", ptr %3, i32 0, i32 0
  %5 = load ptr, ptr %4, align 8, !tbaa !438
  ret ptr %5
}

; Function Attrs: inlinehint mustprogress nounwind uwtable
define linkonce_odr void @_ZN5arrow12EqualOptionsC2Ev(ptr noundef nonnull align 8 dereferenceable(24) %0) unnamed_addr #6 comdat align 2 {
  %2 = alloca ptr, align 8
  store ptr %0, ptr %2, align 8, !tbaa !567
  %3 = load ptr, ptr %2, align 8
  %4 = getelementptr inbounds nuw %"class.arrow::EqualOptions", ptr %3, i32 0, i32 0
  store double 1.000000e-05, ptr %4, align 8, !tbaa !569
  %5 = getelementptr inbounds nuw %"class.arrow::EqualOptions", ptr %3, i32 0, i32 1
  store i8 0, ptr %5, align 8, !tbaa !573
  %6 = getelementptr inbounds nuw %"class.arrow::EqualOptions", ptr %3, i32 0, i32 2
  store i8 1, ptr %6, align 1, !tbaa !574
  %7 = getelementptr inbounds nuw %"class.arrow::EqualOptions", ptr %3, i32 0, i32 3
  store ptr null, ptr %7, align 8, !tbaa !575
  ret void
}

; Function Attrs: mustprogress nounwind uwtable
define linkonce_odr noundef ptr @_ZNKSt19__shared_ptr_accessIN5arrow12ChunkedArrayELN9__gnu_cxx12_Lock_policyE2ELb0ELb0EE6_M_getEv(ptr noundef nonnull align 1 dereferenceable(1) %0) #0 comdat align 2 {
  %2 = alloca ptr, align 8
  store ptr %0, ptr %2, align 8, !tbaa !161
  %3 = load ptr, ptr %2, align 8
  %4 = call noundef ptr @_ZNKSt12__shared_ptrIN5arrow12ChunkedArrayELN9__gnu_cxx12_Lock_policyE2EE3getEv(ptr noundef nonnull align 8 dereferenceable(16) %3) #18
  ret ptr %4
}

; Function Attrs: mustprogress nounwind uwtable
define linkonce_odr noundef ptr @_ZNKSt19__shared_ptr_accessIN5arrow6SchemaELN9__gnu_cxx12_Lock_policyE2ELb0ELb0EE6_M_getEv(ptr noundef nonnull align 1 dereferenceable(1) %0) #0 comdat align 2 {
  %2 = alloca ptr, align 8
  store ptr %0, ptr %2, align 8, !tbaa !95
  %3 = load ptr, ptr %2, align 8
  %4 = call noundef ptr @_ZNKSt12__shared_ptrIN5arrow6SchemaELN9__gnu_cxx12_Lock_policyE2EE3getEv(ptr noundef nonnull align 8 dereferenceable(16) %3) #18
  ret ptr %4
}

; Function Attrs: mustprogress nounwind uwtable
define linkonce_odr void @_ZN5arrow12EqualOptions8DefaultsEv(ptr dead_on_unwind noalias writable sret(%"class.arrow::EqualOptions") align 8 %0) #0 comdat align 2 {
  call void @llvm.memset.p0.i64(ptr align 8 %0, i8 0, i64 24, i1 false)
  call void @_ZN5arrow12EqualOptionsC2Ev(ptr noundef nonnull align 8 dereferenceable(24) %0) #18
  ret void
}

; Function Attrs: mustprogress nounwind uwtable
define linkonce_odr noundef ptr @_ZNKSt19__shared_ptr_accessIN5arrow12ChunkedArrayELN9__gnu_cxx12_Lock_policyE2ELb0ELb0EEptEv(ptr noundef nonnull align 1 dereferenceable(1) %0) #0 comdat align 2 {
  %2 = alloca ptr, align 8
  store ptr %0, ptr %2, align 8, !tbaa !161
  %3 = load ptr, ptr %2, align 8
  %4 = call noundef ptr @_ZNKSt19__shared_ptr_accessIN5arrow12ChunkedArrayELN9__gnu_cxx12_Lock_policyE2ELb0ELb0EE6_M_getEv(ptr noundef nonnull align 1 dereferenceable(1) %3) #18
  ret ptr %4
}

; Function Attrs: mustprogress uwtable
define linkonce_odr noundef i32 @_ZNK5arrow5Table11num_columnsEv(ptr noundef nonnull align 8 dereferenceable(32) %0) #1 comdat align 2 {
  %2 = alloca ptr, align 8
  store ptr %0, ptr %2, align 8, !tbaa !53
  %3 = load ptr, ptr %2, align 8
  %4 = getelementptr inbounds nuw %"class.arrow::Table", ptr %3, i32 0, i32 1
  %5 = call noundef ptr @_ZNKSt19__shared_ptr_accessIN5arrow6SchemaELN9__gnu_cxx12_Lock_policyE2ELb0ELb0EEptEv(ptr noundef nonnull align 1 dereferenceable(1) %4) #18
  %6 = call noundef i32 @_ZNK5arrow6Schema10num_fieldsEv(ptr noundef nonnull align 8 dereferenceable(32) %5)
  ret i32 %6
}

; Function Attrs: mustprogress nounwind uwtable
define linkonce_odr noundef nonnull align 8 dereferenceable(32) ptr @_ZNKSt19__shared_ptr_accessIN5arrow6SchemaELN9__gnu_cxx12_Lock_policyE2ELb0ELb0EEdeEv(ptr noundef nonnull align 1 dereferenceable(1) %0) #0 comdat align 2 {
  %2 = alloca ptr, align 8
  store ptr %0, ptr %2, align 8, !tbaa !95
  %3 = load ptr, ptr %2, align 8
  br label %4

4:                                                ; preds = %1
  br label %5

5:                                                ; preds = %4
  br label %6

6:                                                ; preds = %5
  %7 = call noundef ptr @_ZNKSt19__shared_ptr_accessIN5arrow6SchemaELN9__gnu_cxx12_Lock_policyE2ELb0ELb0EE6_M_getEv(ptr noundef nonnull align 1 dereferenceable(1) %3) #18
  ret ptr %7
}

; Function Attrs: mustprogress nounwind uwtable
define linkonce_odr noundef nonnull align 8 dereferenceable(16) ptr @_ZNK5arrow5Table6schemaEv(ptr noundef nonnull align 8 dereferenceable(32) %0) #0 comdat align 2 {
  %2 = alloca ptr, align 8
  store ptr %0, ptr %2, align 8, !tbaa !53
  %3 = load ptr, ptr %2, align 8
  %4 = getelementptr inbounds nuw %"class.arrow::Table", ptr %3, i32 0, i32 1
  ret ptr %4
}

; Function Attrs: mustprogress nounwind uwtable
define linkonce_odr noundef ptr @_ZNKSt19__shared_ptr_accessIN5arrow6SchemaELN9__gnu_cxx12_Lock_policyE2ELb0ELb0EEptEv(ptr noundef nonnull align 1 dereferenceable(1) %0) #0 comdat align 2 {
  %2 = alloca ptr, align 8
  store ptr %0, ptr %2, align 8, !tbaa !95
  %3 = load ptr, ptr %2, align 8
  %4 = call noundef ptr @_ZNKSt19__shared_ptr_accessIN5arrow6SchemaELN9__gnu_cxx12_Lock_policyE2ELb0ELb0EE6_M_getEv(ptr noundef nonnull align 1 dereferenceable(1) %3) #18
  ret ptr %4
}

; Function Attrs: mustprogress uwtable
define noundef zeroext i1 @_ZNK5arrow5Table6EqualsERKS0_b(ptr noundef nonnull align 8 dereferenceable(32) %0, ptr noundef nonnull align 8 dereferenceable(32) %1, i1 noundef zeroext %2) #1 align 2 personality ptr @__gxx_personality_v0 {
  %4 = alloca i1, align 1
  %5 = alloca ptr, align 8
  %6 = alloca ptr, align 8
  %7 = alloca i8, align 1
  %8 = alloca i32, align 4
  %9 = alloca i32, align 4
  %10 = alloca %"class.std::shared_ptr.49", align 8
  %11 = alloca %"class.std::shared_ptr.49", align 8
  %12 = alloca ptr, align 8
  %13 = alloca i32, align 4
  %14 = alloca %"class.arrow::EqualOptions", align 8
  store ptr %0, ptr %5, align 8, !tbaa !53
  store ptr %1, ptr %6, align 8, !tbaa !53
  %15 = zext i1 %2 to i8
  store i8 %15, ptr %7, align 1, !tbaa !227
  %16 = load ptr, ptr %5, align 8
  %17 = load ptr, ptr %6, align 8, !tbaa !53
  %18 = icmp eq ptr %16, %17
  br i1 %18, label %19, label %20

19:                                               ; preds = %3
  store i1 true, ptr %4, align 1
  br label %75

20:                                               ; preds = %3
  %21 = getelementptr inbounds nuw %"class.arrow::Table", ptr %16, i32 0, i32 1
  %22 = call noundef ptr @_ZNKSt19__shared_ptr_accessIN5arrow6SchemaELN9__gnu_cxx12_Lock_policyE2ELb0ELb0EEptEv(ptr noundef nonnull align 1 dereferenceable(1) %21) #18
  %23 = load ptr, ptr %6, align 8, !tbaa !53
  %24 = call noundef nonnull align 8 dereferenceable(16) ptr @_ZNK5arrow5Table6schemaEv(ptr noundef nonnull align 8 dereferenceable(32) %23)
  %25 = call noundef nonnull align 8 dereferenceable(32) ptr @_ZNKSt19__shared_ptr_accessIN5arrow6SchemaELN9__gnu_cxx12_Lock_policyE2ELb0ELb0EEdeEv(ptr noundef nonnull align 1 dereferenceable(1) %24) #18
  %26 = load i8, ptr %7, align 1, !tbaa !227, !range !147, !noundef !148
  %27 = trunc i8 %26 to i1
  %28 = call noundef zeroext i1 @_ZNK5arrow6Schema6EqualsERKS0_b(ptr noundef nonnull align 8 dereferenceable(32) %22, ptr noundef nonnull align 8 dereferenceable(32) %25, i1 noundef zeroext %27)
  br i1 %28, label %30, label %29

29:                                               ; preds = %20
  store i1 false, ptr %4, align 1
  br label %75

30:                                               ; preds = %20
  %31 = call noundef i32 @_ZNK5arrow5Table11num_columnsEv(ptr noundef nonnull align 8 dereferenceable(32) %16)
  %32 = load ptr, ptr %6, align 8, !tbaa !53
  %33 = call noundef i32 @_ZNK5arrow5Table11num_columnsEv(ptr noundef nonnull align 8 dereferenceable(32) %32)
  %34 = icmp ne i32 %31, %33
  br i1 %34, label %35, label %36

35:                                               ; preds = %30
  store i1 false, ptr %4, align 1
  br label %75

36:                                               ; preds = %30
  call void @llvm.lifetime.start.p0(i64 4, ptr %8) #18
  store i32 0, ptr %8, align 4, !tbaa !8
  br label %37

37:                                               ; preds = %69, %36
  %38 = load i32, ptr %8, align 4, !tbaa !8
  %39 = call noundef i32 @_ZNK5arrow5Table11num_columnsEv(ptr noundef nonnull align 8 dereferenceable(32) %16)
  %40 = icmp slt i32 %38, %39
  br i1 %40, label %42, label %41

41:                                               ; preds = %37
  store i32 2, ptr %9, align 4
  br label %72

42:                                               ; preds = %37
  call void @llvm.lifetime.start.p0(i64 16, ptr %10) #18
  %43 = load i32, ptr %8, align 4, !tbaa !8
  %44 = load ptr, ptr %16, align 8, !tbaa !55
  %45 = getelementptr inbounds ptr, ptr %44, i64 2
  %46 = load ptr, ptr %45, align 8
  call void %46(ptr dead_on_unwind writable sret(%"class.std::shared_ptr.49") align 8 %10, ptr noundef nonnull align 8 dereferenceable(32) %16, i32 noundef %43)
  %47 = call noundef ptr @_ZNKSt19__shared_ptr_accessIN5arrow12ChunkedArrayELN9__gnu_cxx12_Lock_policyE2ELb0ELb0EEptEv(ptr noundef nonnull align 1 dereferenceable(1) %10) #18
  call void @llvm.lifetime.start.p0(i64 16, ptr %11) #18
  %48 = load ptr, ptr %6, align 8, !tbaa !53
  %49 = load i32, ptr %8, align 4, !tbaa !8
  %50 = load ptr, ptr %48, align 8, !tbaa !55
  %51 = getelementptr inbounds ptr, ptr %50, i64 2
  %52 = load ptr, ptr %51, align 8
  invoke void %52(ptr dead_on_unwind writable sret(%"class.std::shared_ptr.49") align 8 %11, ptr noundef nonnull align 8 dereferenceable(32) %48, i32 noundef %49)
          to label %53 unwind label %59

53:                                               ; preds = %42
  call void @llvm.lifetime.start.p0(i64 24, ptr %14) #18
  invoke void @_ZN5arrow12EqualOptions8DefaultsEv(ptr dead_on_unwind writable sret(%"class.arrow::EqualOptions") align 8 %14)
          to label %54 unwind label %63

54:                                               ; preds = %53
  %55 = invoke noundef zeroext i1 @_ZNK5arrow12ChunkedArray6EqualsERKSt10shared_ptrIS0_ERKNS_12EqualOptionsE(ptr noundef nonnull align 8 dereferenceable(88) %47, ptr noundef nonnull align 8 dereferenceable(16) %11, ptr noundef nonnull align 8 dereferenceable(24) %14)
          to label %56 unwind label %63

56:                                               ; preds = %54
  %57 = xor i1 %55, true
  call void @llvm.lifetime.end.p0(i64 24, ptr %14) #18
  call void @_ZNSt12__shared_ptrIN5arrow12ChunkedArrayELN9__gnu_cxx12_Lock_policyE2EED2Ev(ptr noundef nonnull align 8 dereferenceable(16) %11) #18
  call void @llvm.lifetime.end.p0(i64 16, ptr %11) #18
  call void @_ZNSt12__shared_ptrIN5arrow12ChunkedArrayELN9__gnu_cxx12_Lock_policyE2EED2Ev(ptr noundef nonnull align 8 dereferenceable(16) %10) #18
  call void @llvm.lifetime.end.p0(i64 16, ptr %10) #18
  br i1 %57, label %58, label %68

58:                                               ; preds = %56
  store i1 false, ptr %4, align 1
  store i32 1, ptr %9, align 4
  br label %72

59:                                               ; preds = %42
  %60 = landingpad { ptr, i32 }
          cleanup
  %61 = extractvalue { ptr, i32 } %60, 0
  store ptr %61, ptr %12, align 8
  %62 = extractvalue { ptr, i32 } %60, 1
  store i32 %62, ptr %13, align 4
  br label %67

63:                                               ; preds = %54, %53
  %64 = landingpad { ptr, i32 }
          cleanup
  %65 = extractvalue { ptr, i32 } %64, 0
  store ptr %65, ptr %12, align 8
  %66 = extractvalue { ptr, i32 } %64, 1
  store i32 %66, ptr %13, align 4
  call void @llvm.lifetime.end.p0(i64 24, ptr %14) #18
  call void @_ZNSt12__shared_ptrIN5arrow12ChunkedArrayELN9__gnu_cxx12_Lock_policyE2EED2Ev(ptr noundef nonnull align 8 dereferenceable(16) %11) #18
  br label %67

67:                                               ; preds = %63, %59
  call void @llvm.lifetime.end.p0(i64 16, ptr %11) #18
  call void @_ZNSt12__shared_ptrIN5arrow12ChunkedArrayELN9__gnu_cxx12_Lock_policyE2EED2Ev(ptr noundef nonnull align 8 dereferenceable(16) %10) #18
  call void @llvm.lifetime.end.p0(i64 16, ptr %10) #18
  call void @llvm.lifetime.end.p0(i64 4, ptr %8) #18
  br label %77

68:                                               ; preds = %56
  br label %69

69:                                               ; preds = %68
  %70 = load i32, ptr %8, align 4, !tbaa !8
  %71 = add nsw i32 %70, 1
  store i32 %71, ptr %8, align 4, !tbaa !8
  br label %37, !llvm.loop !323

72:                                               ; preds = %58, %41
  call void @llvm.lifetime.end.p0(i64 4, ptr %8) #18
  %73 = load i32, ptr %9, align 4
  switch i32 %73, label %82 [
    i32 2, label %74
    i32 1, label %75
  ]

74:                                               ; preds = %72
  store i1 true, ptr %4, align 1
  br label %75

75:                                               ; preds = %74, %72, %35, %29, %19
  %76 = load i1, ptr %4, align 1
  ret i1 %76

77:                                               ; preds = %67
  %78 = load ptr, ptr %12, align 8
  %79 = load i32, ptr %13, align 4
  %80 = insertvalue { ptr, i32 } poison, ptr %78, 0
  %81 = insertvalue { ptr, i32 } %80, i32 %79, 1
  resume { ptr, i32 } %81

82:                                               ; preds = %72
  unreachable
}