; Function Attrs: mustprogress uwtable
define noundef zeroext i1 @_ZNK5arrow5Table6EqualsERKS0_b(ptr noundef nonnull align 8 dereferenceable(32) %0, ptr noundef nonnull align 8 dereferenceable(32) %1, i1 noundef zeroext %2) local_unnamed_addr #2 align 2 personality ptr @__gxx_personality_v0 {
  %4 = alloca %"class.std::shared_ptr.49", align 8
  %5 = alloca %"class.std::shared_ptr.49", align 8
  %6 = alloca %"class.arrow::EqualOptions", align 8
  %7 = icmp eq ptr %0, %1
  br i1 %7, label %.loopexit, label %8

8:                                                ; preds = %3
  %9 = getelementptr inbounds nuw i8, ptr %0, i64 8
  %10 = load ptr, ptr %9, align 8, !tbaa !34
  %11 = getelementptr inbounds nuw i8, ptr %1, i64 8
  %12 = load ptr, ptr %11, align 8, !tbaa !34
  %13 = tail call noundef zeroext i1 @_ZNK5arrow6Schema6EqualsERKS0_b(ptr noundef nonnull align 8 dereferenceable(32) %10, ptr noundef nonnull align 8 dereferenceable(32) %12, i1 noundef zeroext %2)
  br i1 %13, label %14, label %.loopexit

14:                                               ; preds = %8
  %15 = load ptr, ptr %9, align 8, !tbaa !34
  %16 = tail call noundef i32 @_ZNK5arrow6Schema10num_fieldsEv(ptr noundef nonnull align 8 dereferenceable(32) %15)
  %17 = load ptr, ptr %11, align 8, !tbaa !34
  %18 = tail call noundef i32 @_ZNK5arrow6Schema10num_fieldsEv(ptr noundef nonnull align 8 dereferenceable(32) %17)
  %.not = icmp eq i32 %16, %18
  br i1 %.not, label %.preheader, label %.loopexit

.preheader:                                       ; preds = %14
  %19 = load ptr, ptr %9, align 8, !tbaa !34
  %20 = tail call noundef i32 @_ZNK5arrow6Schema10num_fieldsEv(ptr noundef nonnull align 8 dereferenceable(32) %19)
  %21 = icmp slt i32 %20, 1
  br i1 %21, label %.loopexit, label %.lr.ph

.lr.ph:                                           ; preds = %.preheader
  %22 = getelementptr inbounds nuw i8, ptr %6, i64 8
  %23 = getelementptr inbounds nuw i8, ptr %6, i64 16
  %24 = getelementptr inbounds nuw i8, ptr %5, i64 8
  %25 = getelementptr inbounds nuw i8, ptr %4, i64 8
  br label %30

26:                                               ; preds = %_ZNSt12__shared_ptrIN5arrow12ChunkedArrayELN9__gnu_cxx12_Lock_policyE2EED2Ev.exit24
  %27 = add nuw nsw i32 %.01525, 1
  %28 = load ptr, ptr %9, align 8, !tbaa !34
  %29 = call noundef i32 @_ZNK5arrow6Schema10num_fieldsEv(ptr noundef nonnull align 8 dereferenceable(32) %28)
  %.not27 = icmp slt i32 %27, %29
  br i1 %.not27, label %30, label %.loopexit, !llvm.loop !416

30:                                               ; preds = %.lr.ph, %26
  %.01525 = phi i32 [ 0, %.lr.ph ], [ %27, %26 ]
  call void @llvm.lifetime.start.p0(i64 16, ptr nonnull %4) #23
  %31 = load ptr, ptr %0, align 8, !tbaa !32
  %32 = getelementptr inbounds nuw i8, ptr %31, i64 16
  %33 = load ptr, ptr %32, align 8
  call void %33(ptr dead_on_unwind nonnull writable sret(%"class.std::shared_ptr.49") align 8 %4, ptr noundef nonnull align 8 dereferenceable(32) %0, i32 noundef %.01525)
  %34 = load ptr, ptr %4, align 8, !tbaa !70
  call void @llvm.lifetime.start.p0(i64 16, ptr nonnull %5) #23
  %35 = load ptr, ptr %1, align 8, !tbaa !32
  %36 = getelementptr inbounds nuw i8, ptr %35, i64 16
  %37 = load ptr, ptr %36, align 8
  invoke void %37(ptr dead_on_unwind nonnull writable sret(%"class.std::shared_ptr.49") align 8 %5, ptr noundef nonnull align 8 dereferenceable(32) %1, i32 noundef %.01525)
          to label %38 unwind label %85

38:                                               ; preds = %30
  call void @llvm.lifetime.start.p0(i64 24, ptr nonnull %6) #23
  store i64 256, ptr %22, align 8, !alias.scope !417
  store double 1.000000e-05, ptr %6, align 8, !tbaa !420, !alias.scope !417
  store ptr null, ptr %23, align 8, !tbaa !424, !alias.scope !417
  %39 = invoke noundef zeroext i1 @_ZNK5arrow12ChunkedArray6EqualsERKSt10shared_ptrIS0_ERKNS_12EqualOptionsE(ptr noundef nonnull align 8 dereferenceable(88) %34, ptr noundef nonnull align 8 dereferenceable(16) %5, ptr noundef nonnull align 8 dereferenceable(24) %6)
          to label %40 unwind label %87

40:                                               ; preds = %38
  call void @llvm.lifetime.end.p0(i64 24, ptr nonnull %6) #23
  %41 = load ptr, ptr %24, align 8, !tbaa !46
  %.not.i.i = icmp eq ptr %41, null
  br i1 %.not.i.i, label %_ZNSt12__shared_ptrIN5arrow12ChunkedArrayELN9__gnu_cxx12_Lock_policyE2EED2Ev.exit, label %42

42:                                               ; preds = %40
  %43 = getelementptr inbounds nuw i8, ptr %41, i64 8
  %44 = load atomic i64, ptr %43 acquire, align 8
  %45 = icmp eq i64 %44, 4294967297
  %46 = trunc i64 %44 to i32
  br i1 %45, label %47, label %55

47:                                               ; preds = %42
  store i32 0, ptr %43, align 8, !tbaa !53
  %48 = getelementptr inbounds nuw i8, ptr %41, i64 12
  store i32 0, ptr %48, align 4, !tbaa !55
  %49 = load ptr, ptr %41, align 8, !tbaa !32
  %50 = getelementptr inbounds nuw i8, ptr %49, i64 16
  %51 = load ptr, ptr %50, align 8
  call void %51(ptr noundef nonnull align 8 dereferenceable(16) %41) #23
  %52 = load ptr, ptr %41, align 8, !tbaa !32
  %53 = getelementptr inbounds nuw i8, ptr %52, i64 24
  %54 = load ptr, ptr %53, align 8
  call void %54(ptr noundef nonnull align 8 dereferenceable(16) %41) #23
  br label %_ZNSt12__shared_ptrIN5arrow12ChunkedArrayELN9__gnu_cxx12_Lock_policyE2EED2Ev.exit

55:                                               ; preds = %42
  %56 = load i8, ptr @__libc_single_threaded, align 1, !tbaa !47
  %.not.i.i.i = icmp eq i8 %56, 0
  br i1 %.not.i.i.i, label %59, label %57

57:                                               ; preds = %55
  %58 = add nsw i32 %46, -1
  store i32 %58, ptr %43, align 4, !tbaa !48
  br label %_ZN9__gnu_cxx27__exchange_and_add_dispatchEPii.exit.i.i.i

59:                                               ; preds = %55
  %60 = atomicrmw volatile add ptr %43, i32 -1 acq_rel, align 4
  br label %_ZN9__gnu_cxx27__exchange_and_add_dispatchEPii.exit.i.i.i

_ZN9__gnu_cxx27__exchange_and_add_dispatchEPii.exit.i.i.i: ; preds = %59, %57
  %.0.i.i.i.i = phi i32 [ %46, %57 ], [ %60, %59 ]
  %61 = icmp eq i32 %.0.i.i.i.i, 1
  br i1 %61, label %62, label %_ZNSt12__shared_ptrIN5arrow12ChunkedArrayELN9__gnu_cxx12_Lock_policyE2EED2Ev.exit, !prof !56

62:                                               ; preds = %_ZN9__gnu_cxx27__exchange_and_add_dispatchEPii.exit.i.i.i
  call void @_ZNSt16_Sp_counted_baseILN9__gnu_cxx12_Lock_policyE2EE24_M_release_last_use_coldEv(ptr noundef nonnull align 8 dereferenceable(16) %41) #23
  br label %_ZNSt12__shared_ptrIN5arrow12ChunkedArrayELN9__gnu_cxx12_Lock_policyE2EED2Ev.exit

_ZNSt12__shared_ptrIN5arrow12ChunkedArrayELN9__gnu_cxx12_Lock_policyE2EED2Ev.exit: ; preds = %40, %47, %_ZN9__gnu_cxx27__exchange_and_add_dispatchEPii.exit.i.i.i, %62
  call void @llvm.lifetime.end.p0(i64 16, ptr nonnull %5) #23
  %63 = load ptr, ptr %25, align 8, !tbaa !46
  %.not.i.i20 = icmp eq ptr %63, null
  br i1 %.not.i.i20, label %_ZNSt12__shared_ptrIN5arrow12ChunkedArrayELN9__gnu_cxx12_Lock_policyE2EED2Ev.exit24, label %64

64:                                               ; preds = %_ZNSt12__shared_ptrIN5arrow12ChunkedArrayELN9__gnu_cxx12_Lock_policyE2EED2Ev.exit
  %65 = getelementptr inbounds nuw i8, ptr %63, i64 8
  %66 = load atomic i64, ptr %65 acquire, align 8
  %67 = icmp eq i64 %66, 4294967297
  %68 = trunc i64 %66 to i32
  br i1 %67, label %69, label %77

69:                                               ; preds = %64
  store i32 0, ptr %65, align 8, !tbaa !53
  %70 = getelementptr inbounds nuw i8, ptr %63, i64 12
  store i32 0, ptr %70, align 4, !tbaa !55
  %71 = load ptr, ptr %63, align 8, !tbaa !32
  %72 = getelementptr inbounds nuw i8, ptr %71, i64 16
  %73 = load ptr, ptr %72, align 8
  call void %73(ptr noundef nonnull align 8 dereferenceable(16) %63) #23
  %74 = load ptr, ptr %63, align 8, !tbaa !32
  %75 = getelementptr inbounds nuw i8, ptr %74, i64 24
  %76 = load ptr, ptr %75, align 8
  call void %76(ptr noundef nonnull align 8 dereferenceable(16) %63) #23
  br label %_ZNSt12__shared_ptrIN5arrow12ChunkedArrayELN9__gnu_cxx12_Lock_policyE2EED2Ev.exit24

77:                                               ; preds = %64
  %78 = load i8, ptr @__libc_single_threaded, align 1, !tbaa !47
  %.not.i.i.i21 = icmp eq i8 %78, 0
  br i1 %.not.i.i.i21, label %81, label %79

79:                                               ; preds = %77
  %80 = add nsw i32 %68, -1
  store i32 %80, ptr %65, align 4, !tbaa !48
  br label %_ZN9__gnu_cxx27__exchange_and_add_dispatchEPii.exit.i.i.i22

81:                                               ; preds = %77
  %82 = atomicrmw volatile add ptr %65, i32 -1 acq_rel, align 4
  br label %_ZN9__gnu_cxx27__exchange_and_add_dispatchEPii.exit.i.i.i22

_ZN9__gnu_cxx27__exchange_and_add_dispatchEPii.exit.i.i.i22: ; preds = %81, %79
  %.0.i.i.i.i23 = phi i32 [ %68, %79 ], [ %82, %81 ]
  %83 = icmp eq i32 %.0.i.i.i.i23, 1
  br i1 %83, label %84, label %_ZNSt12__shared_ptrIN5arrow12ChunkedArrayELN9__gnu_cxx12_Lock_policyE2EED2Ev.exit24, !prof !56

84:                                               ; preds = %_ZN9__gnu_cxx27__exchange_and_add_dispatchEPii.exit.i.i.i22
  call void @_ZNSt16_Sp_counted_baseILN9__gnu_cxx12_Lock_policyE2EE24_M_release_last_use_coldEv(ptr noundef nonnull align 8 dereferenceable(16) %63) #23
  br label %_ZNSt12__shared_ptrIN5arrow12ChunkedArrayELN9__gnu_cxx12_Lock_policyE2EED2Ev.exit24

_ZNSt12__shared_ptrIN5arrow12ChunkedArrayELN9__gnu_cxx12_Lock_policyE2EED2Ev.exit24: ; preds = %_ZNSt12__shared_ptrIN5arrow12ChunkedArrayELN9__gnu_cxx12_Lock_policyE2EED2Ev.exit, %69, %_ZN9__gnu_cxx27__exchange_and_add_dispatchEPii.exit.i.i.i22, %84
  call void @llvm.lifetime.end.p0(i64 16, ptr nonnull %4) #23
  br i1 %39, label %26, label %.loopexit

85:                                               ; preds = %30
  %86 = landingpad { ptr, i32 }
          cleanup
  br label %89

87:                                               ; preds = %38
  %88 = landingpad { ptr, i32 }
          cleanup
  call void @llvm.lifetime.end.p0(i64 24, ptr nonnull %6) #23
  call void @_ZNSt12__shared_ptrIN5arrow12ChunkedArrayELN9__gnu_cxx12_Lock_policyE2EED2Ev(ptr noundef nonnull align 8 dereferenceable(16) %5) #23
  br label %89

89:                                               ; preds = %87, %85
  %.pn = phi { ptr, i32 } [ %88, %87 ], [ %86, %85 ]
  call void @llvm.lifetime.end.p0(i64 16, ptr nonnull %5) #23
  call void @_ZNSt12__shared_ptrIN5arrow12ChunkedArrayELN9__gnu_cxx12_Lock_policyE2EED2Ev(ptr noundef nonnull align 8 dereferenceable(16) %4) #23
  call void @llvm.lifetime.end.p0(i64 16, ptr nonnull %4) #23
  resume { ptr, i32 } %.pn

.loopexit:                                        ; preds = %_ZNSt12__shared_ptrIN5arrow12ChunkedArrayELN9__gnu_cxx12_Lock_policyE2EED2Ev.exit24, %26, %.preheader, %14, %8, %3
  %.016 = phi i1 [ true, %3 ], [ false, %8 ], [ false, %14 ], [ true, %.preheader ], [ %39, %26 ], [ %39, %_ZNSt12__shared_ptrIN5arrow12ChunkedArrayELN9__gnu_cxx12_Lock_policyE2EED2Ev.exit24 ]
  ret i1 %.016
}